target datalayout = "e-m:e-p270:32:32-p271:32:32-p272:64:64-i64:64-i128:128-f80:128-n8:16:32:64-S128"
target triple = "x86_64-pc-linux-gnu"

%class.G1PageBasedVirtualSpace = type <{ ptr, ptr, i64, i64, %class.CHeapBitMap, %class.CHeapBitMap, i8, [7 x i8] }>
%class.CHeapBitMap = type <{ %class.GrowableBitMap, i8, [7 x i8] }>
%class.GrowableBitMap = type { %class.BitMap }
%class.BitMap = type { ptr, i64 }

@g_assert_poison = external global ptr, align 8
@.str = private unnamed_addr constant [52 x i8] c"src/hotspot/share/gc/g1/g1PageBasedVirtualSpace.cpp\00", align 1
@.str.14 = private unnamed_addr constant [45 x i8] c"guarantee(index <= _committed.size()) failed\00", align 1
@.str.15 = private unnamed_addr constant [57 x i8] c"Given boundary page %lu is beyond managed page count %lu\00", align 1

; Function Attrs: mustprogress nounwind uwtable
define linkonce_odr hidden noundef i64 @_ZNK6BitMap4sizeEv(ptr noundef nonnull align 8 dereferenceable(16) %0) #1 comdat align 2 {
  %2 = alloca ptr, align 8
  store ptr %0, ptr %2, align 8
  %3 = load ptr, ptr %2, align 8
  %4 = getelementptr inbounds %class.BitMap, ptr %3, i32 0, i32 1
  %5 = load i64, ptr %4, align 8
  ret i64 %5
}

; Function Attrs: mustprogress nounwind uwtable
define hidden noundef zeroext i1 @_ZNK23G1PageBasedVirtualSpace18is_after_last_pageEm(ptr noundef nonnull align 8 dereferenceable(81) %0, i64 noundef %1) #1 align 2 {
  %3 = alloca ptr, align 8
  %4 = alloca i64, align 8
  store ptr %0, ptr %3, align 8
  store i64 %1, ptr %4, align 8
  %5 = load ptr, ptr %3, align 8
  br label %6

6:                                                ; preds = %2
  %7 = load i64, ptr %4, align 8
  %8 = getelementptr inbounds %class.G1PageBasedVirtualSpace, ptr %5, i32 0, i32 4
  %9 = call noundef i64 @_ZNK6BitMap4sizeEv(ptr noundef nonnull align 8 dereferenceable(16) %8)
  %10 = icmp ule i64 %7, %9
  br i1 %10, label %16, label %11

11:                                               ; preds = %6
  %12 = load ptr, ptr @g_assert_poison, align 8
  store i8 88, ptr %12, align 1
  %13 = load i64, ptr %4, align 8
  %14 = getelementptr inbounds %class.G1PageBasedVirtualSpace, ptr %5, i32 0, i32 4
  %15 = call noundef i64 @_ZNK6BitMap4sizeEv(ptr noundef nonnull align 8 dereferenceable(16) %14)
  call void (ptr, i32, ptr, ptr, ...) @_Z15report_vm_errorPKciS0_S0_z(ptr noundef @.str, i32 noundef 124, ptr noundef @.str.14, ptr noundef @.str.15, i64 noundef %13, i64 noundef %15) #7
  unreachable

16:                                               ; preds = %6
  br label %17

17:                                               ; preds = %16
  %18 = load i64, ptr %4, align 8
  %19 = getelementptr inbounds %class.G1PageBasedVirtualSpace, ptr %5, i32 0, i32 4
  %20 = call noundef i64 @_ZNK6BitMap4sizeEv(ptr noundef nonnull align 8 dereferenceable(16) %19)
  %21 = icmp eq i64 %18, %20
  ret i1 %21
}