; Function Attrs: mustprogress nounwind uwtable
define hidden noundef zeroext i1 @_ZNK23G1PageBasedVirtualSpace18is_after_last_pageEm(ptr nocapture noundef nonnull readonly align 8 dereferenceable(81) %0, i64 noundef %1) local_unnamed_addr #0 align 2 {
  %3 = getelementptr inbounds i8, ptr %0, i64 40
  %4 = load i64, ptr %3, align 8
  %.not = icmp ult i64 %4, %1
  br i1 %.not, label %5, label %8

5:                                                ; preds = %2
  %6 = load ptr, ptr @g_assert_poison, align 8
  store i8 88, ptr %6, align 1
  %7 = load i64, ptr %3, align 8
  tail call void (ptr, i32, ptr, ptr, ...) @_Z15report_vm_errorPKciS0_S0_z(ptr noundef nonnull @.str, i32 noundef 124, ptr noundef nonnull @.str.14, ptr noundef nonnull @.str.15, i64 noundef %1, i64 noundef %7) #9
  unreachable

8:                                                ; preds = %2
  %9 = icmp eq i64 %4, %1
  ret i1 %9
}